target datalayout = "e-m:e-p270:32:32-p271:32:32-p272:64:64-i64:64-i128:128-f80:128-n8:16:32:64-S128"
target triple = "x86_64-unknown-linux-gnu"

%struct.alts_grpc_handshaker_client = type { %struct.alts_handshaker_client, %struct.gpr_refcount, ptr, ptr, ptr, %struct.grpc_closure, ptr, ptr, i8, %struct.grpc_metadata_array, ptr, ptr, ptr, %struct.grpc_slice, i8, %struct.grpc_slice, ptr, i64, %struct.grpc_closure, i32, %struct.grpc_slice, %"class.absl::lts_20230802::Mutex", i8, ptr, i64, ptr }
%struct.alts_handshaker_client = type { ptr }
%struct.gpr_refcount = type { i64 }
%struct.grpc_metadata_array = type { i64, i64, ptr }
%struct.grpc_closure = type { %union.anon, ptr, ptr, %union.anon.0 }
%union.anon = type { ptr }
%union.anon.0 = type { i64 }
%struct.grpc_slice = type { ptr, %"union.grpc_slice::grpc_slice_data" }
%"union.grpc_slice::grpc_slice_data" = type { %"struct.grpc_slice::grpc_slice_data::grpc_slice_refcounted", [8 x i8] }
%"struct.grpc_slice::grpc_slice_data::grpc_slice_refcounted" = type { i64, ptr }
%"class.absl::lts_20230802::Mutex" = type { %"struct.std::atomic" }
%"struct.std::atomic" = type { %"struct.std::__atomic_base" }
%"struct.std::__atomic_base" = type { i64 }

@.str = private unnamed_addr constant [142 x i8] c"generated/home/dtcxzyw/WorkSpace/Projects/compilers/llvm-opt-benchmark/bench/grpc/grpc/src/core/tsi/alts/handshaker/alts_handshaker_client.cc\00", align 1
@.str.1 = private unnamed_addr constant [13 x i8] c"c != nullptr\00", align 1

; Function Attrs: mustprogress uwtable
define internal void @_ZL26handshaker_client_shutdownP22alts_handshaker_client(ptr noundef %c) #4 {
entry:
  %c.addr = alloca ptr, align 8
  %client = alloca ptr, align 8
  store ptr %c, ptr %c.addr, align 8
  br label %do.body

do.body:                                          ; preds = %entry
  %0 = load ptr, ptr %c.addr, align 8
  %cmp = icmp ne ptr %0, null
  %lnot = xor i1 %cmp, true
  br i1 %lnot, label %if.then, label %if.end

if.then:                                          ; preds = %do.body
  call void @gpr_assertion_failed(ptr noundef @.str, i32 noundef 665, ptr noundef @.str.1) #16
  unreachable

if.end:                                           ; preds = %do.body
  br label %do.end

do.end:                                           ; preds = %if.end
  %1 = load ptr, ptr %c.addr, align 8
  store ptr %1, ptr %client, align 8
  %2 = load ptr, ptr %client, align 8
  %call = getelementptr inbounds %struct.alts_grpc_handshaker_client, ptr %2, i32 0, i32 3
  %3 = load ptr, ptr %call, align 8
  %cmp1 = icmp ne ptr %3, null
  br i1 %cmp1, label %if.then2, label %if.end4

if.then2:                                         ; preds = %do.end
  %4 = load ptr, ptr %client, align 8
  %call3 = getelementptr inbounds %struct.alts_grpc_handshaker_client, ptr %4, i32 0, i32 3
  %5 = load ptr, ptr %call3, align 8
  call void @_Z25grpc_call_cancel_internalP9grpc_call(ptr noundef %5)
  br label %if.end4

if.end4:                                          ; preds = %if.then2, %do.end
  ret void
}