; Function Attrs: mustprogress uwtable
define internal void @_ZL26handshaker_client_shutdownP22alts_handshaker_client(ptr noundef readonly %c) #3 {
entry:
  %cmp.not = icmp eq ptr %c, null
  br i1 %cmp.not, label %if.then, label %do.end

if.then:                                          ; preds = %entry
  tail call void @gpr_assertion_failed(ptr noundef nonnull @.str, i32 noundef 665, ptr noundef nonnull @.str.1) #17
  unreachable

do.end:                                           ; preds = %entry
  %call = getelementptr inbounds i8, ptr %c, i64 24
  %0 = load ptr, ptr %call, align 8
  %cmp1.not = icmp eq ptr %0, null
  br i1 %cmp1.not, label %if.end4, label %if.then2

if.then2:                                         ; preds = %do.end
  tail call void @_Z25grpc_call_cancel_internalP9grpc_call(ptr noundef nonnull %0)
  br label %if.end4

if.end4:                                          ; preds = %if.then2, %do.end
  ret void
}